target datalayout = "e-m:e-p270:32:32-p271:32:32-p272:64:64-i64:64-i128:128-f80:128-n8:16:32:64-S128"
target triple = "x86_64-pc-linux-gnu"

%struct.H5O_obj_class_t = type { i32, ptr, ptr, ptr, ptr, ptr, ptr, ptr, ptr, ptr }
%struct.H5O_loc_t = type { ptr, i64, i8 }
%struct.H5O_hdr_info_t = type { i32, i32, i32, i32, %struct.anon, %struct.anon.0 }
%struct.anon = type { i64, i64, i64, i64 }
%struct.anon.0 = type { i64, i64 }
%struct.H5O_native_info_t = type { %struct.H5O_hdr_info_t, %struct.anon.1 }
%struct.anon.1 = type { %struct.H5_ih_info_t, %struct.H5_ih_info_t }
%struct.H5_ih_info_t = type { i64, i64 }

@.str.4 = private unnamed_addr constant [100 x i8] c"generated/home/dtcxzyw/WorkSpace/Projects/compilers/llvm-opt-benchmark/bench/hdf5/hdf5/src/H5Oint.c\00", align 1
@H5E_OHDR_g = external global i64, align 8
@H5E_CANTGET_g = external global i64, align 8
@.str.27 = private unnamed_addr constant [33 x i8] c"unable to determine object class\00", align 1
@H5E_CANTPROTECT_g = external global i64, align 8
@.str.41 = private unnamed_addr constant [29 x i8] c"unable to load object header\00", align 1
@H5E_CANTUNPROTECT_g = external global i64, align 8
@.str.47 = private unnamed_addr constant [32 x i8] c"unable to release object header\00", align 1
@H5E_CANTINIT_g = external global i64, align 8
@.str.58 = private unnamed_addr constant [32 x i8] c"unable to determine object type\00", align 1
@.str.65 = private unnamed_addr constant [34 x i8] c"can't retrieve object header info\00", align 1
@__func__.H5O_get_native_info = private unnamed_addr constant [20 x i8] c"H5O_get_native_info\00", align 1
@.str.73 = private unnamed_addr constant [42 x i8] c"can't retrieve object's btree & heap info\00", align 1
@.str.74 = private unnamed_addr constant [43 x i8] c"can't retrieve attribute btree & heap info\00", align 1
@H5O_obj_class_g = internal constant [3 x ptr] [ptr @H5O_OBJ_DATATYPE, ptr @H5O_OBJ_DATASET, ptr @H5O_OBJ_GROUP], align 16
@__func__.H5O__obj_class_real = private unnamed_addr constant [20 x i8] c"H5O__obj_class_real\00", align 1

; Function Attrs: nounwind uwtable
define internal ptr @H5O__obj_class_real(ptr noundef %0) #0 {
  %2 = alloca ptr, align 8
  %3 = alloca i64, align 8
  %4 = alloca ptr, align 8
  %5 = alloca i8, align 1
  %6 = alloca i32, align 4
  store ptr %0, ptr %2, align 8
  store ptr null, ptr %4, align 8
  store i8 0, ptr %5, align 1
  store i64 3, ptr %3, align 8
  br label %7

7:                                                ; preds = %47, %1
  %8 = load i64, ptr %3, align 8
  %9 = icmp ugt i64 %8, 0
  br i1 %9, label %10, label %50

10:                                               ; preds = %7
  %11 = load i64, ptr %3, align 8
  %12 = sub i64 %11, 1
  %13 = getelementptr inbounds [3 x ptr], ptr @H5O_obj_class_g, i64 0, i64 %12
  %14 = load ptr, ptr %13, align 8
  %15 = getelementptr inbounds %struct.H5O_obj_class_t, ptr %14, i32 0, i32 4
  %16 = load ptr, ptr %15, align 8
  %17 = load ptr, ptr %2, align 8
  %18 = call i32 %16(ptr noundef %17)
  store i32 %18, ptr %6, align 4
  %19 = icmp slt i32 %18, 0
  br i1 %19, label %20, label %35

20:                                               ; preds = %10
  br label %21

21:                                               ; preds = %20
  br label %22

22:                                               ; preds = %21
  br label %23

23:                                               ; preds = %22
  %24 = load i64, ptr @H5E_OHDR_g, align 8
  %25 = load i64, ptr @H5E_CANTINIT_g, align 8
  %26 = call i32 (ptr, ptr, i32, i64, i64, ptr, ...) @H5E_printf_stack(ptr noundef @.str.4, ptr noundef @__func__.H5O__obj_class_real, i32 noundef 1689, i64 noundef %24, i64 noundef %25, ptr noundef @.str.58)
  br label %27

27:                                               ; preds = %23
  store i8 1, ptr %5, align 1
  %28 = load i8, ptr %5, align 1
  %29 = trunc i8 %28 to i1
  %30 = zext i1 %29 to i8
  store i8 %30, ptr %5, align 1
  br label %31

31:                                               ; preds = %27
  br label %32

32:                                               ; preds = %31
  store ptr null, ptr %4, align 8
  br label %69

33:                                               ; No predecessors!
  br label %34

34:                                               ; preds = %33
  br label %46

35:                                               ; preds = %10
  %36 = load i32, ptr %6, align 4
  %37 = icmp ne i32 %36, 0
  br i1 %37, label %38, label %45

38:                                               ; preds = %35
  br label %39

39:                                               ; preds = %38
  %40 = load i64, ptr %3, align 8
  %41 = sub i64 %40, 1
  %42 = getelementptr inbounds [3 x ptr], ptr @H5O_obj_class_g, i64 0, i64 %41
  %43 = load ptr, ptr %42, align 8
  store ptr %43, ptr %4, align 8
  br label %69

44:                                               ; No predecessors!
  br label %45

45:                                               ; preds = %44, %35
  br label %46

46:                                               ; preds = %45, %34
  br label %47

47:                                               ; preds = %46
  %48 = load i64, ptr %3, align 8
  %49 = add i64 %48, -1
  store i64 %49, ptr %3, align 8
  br label %7

50:                                               ; preds = %7
  %51 = load i64, ptr %3, align 8
  %52 = icmp eq i64 0, %51
  br i1 %52, label %53, label %68

53:                                               ; preds = %50
  br label %54

54:                                               ; preds = %53
  br label %55

55:                                               ; preds = %54
  br label %56

56:                                               ; preds = %55
  %57 = load i64, ptr @H5E_OHDR_g, align 8
  %58 = load i64, ptr @H5E_CANTINIT_g, align 8
  %59 = call i32 (ptr, ptr, i32, i64, i64, ptr, ...) @H5E_printf_stack(ptr noundef @.str.4, ptr noundef @__func__.H5O__obj_class_real, i32 noundef 1695, i64 noundef %57, i64 noundef %58, ptr noundef @.str.58)
  br label %60

60:                                               ; preds = %56
  store i8 1, ptr %5, align 1
  %61 = load i8, ptr %5, align 1
  %62 = trunc i8 %61 to i1
  %63 = zext i1 %62 to i8
  store i8 %63, ptr %5, align 1
  br label %64

64:                                               ; preds = %60
  br label %65

65:                                               ; preds = %64
  store ptr null, ptr %4, align 8
  br label %69

66:                                               ; No predecessors!
  br label %67

67:                                               ; preds = %66
  br label %68

68:                                               ; preds = %67, %50
  br label %69

69:                                               ; preds = %68, %65, %39, %32
  %70 = load ptr, ptr %4, align 8
  ret ptr %70
}

; Function Attrs: nounwind uwtable
define i32 @H5O_get_native_info(ptr noundef %0, ptr noundef %1, i32 noundef %2) #0 {
  %4 = alloca ptr, align 8
  %5 = alloca ptr, align 8
  %6 = alloca i32, align 4
  %7 = alloca ptr, align 8
  %8 = alloca ptr, align 8
  %9 = alloca i32, align 4
  %10 = alloca i64, align 8
  %11 = alloca i8, align 1
  store ptr %0, ptr %4, align 8
  store ptr %1, ptr %5, align 8
  store i32 %2, ptr %6, align 4
  store ptr null, ptr %8, align 8
  store i32 0, ptr %9, align 4
  store i64 -1, ptr %10, align 8
  store i8 0, ptr %11, align 1
  %12 = load ptr, ptr %4, align 8
  %13 = getelementptr inbounds %struct.H5O_loc_t, ptr %12, i32 0, i32 1
  %14 = load i64, ptr %13, align 8
  call void @H5AC_tag(i64 noundef %14, ptr noundef %10)
  %15 = load ptr, ptr %4, align 8
  %16 = call ptr @H5O_protect(ptr noundef %15, i32 noundef 128, i1 noundef zeroext false)
  store ptr %16, ptr %8, align 8
  %17 = icmp eq ptr null, %16
  br i1 %17, label %18, label %33

18:                                               ; preds = %3
  br label %19

19:                                               ; preds = %18
  br label %20

20:                                               ; preds = %19
  br label %21

21:                                               ; preds = %20
  %22 = load i64, ptr @H5E_OHDR_g, align 8
  %23 = load i64, ptr @H5E_CANTPROTECT_g, align 8
  %24 = call i32 (ptr, ptr, i32, i64, i64, ptr, ...) @H5E_printf_stack(ptr noundef @.str.4, ptr noundef @__func__.H5O_get_native_info, i32 noundef 2191, i64 noundef %22, i64 noundef %23, ptr noundef @.str.41)
  br label %25

25:                                               ; preds = %21
  store i8 1, ptr %11, align 1
  %26 = load i8, ptr %11, align 1
  %27 = trunc i8 %26 to i1
  %28 = zext i1 %27 to i8
  store i8 %28, ptr %11, align 1
  br label %29

29:                                               ; preds = %25
  br label %30

30:                                               ; preds = %29
  store i32 -1, ptr %9, align 4
  br label %142

31:                                               ; No predecessors!
  br label %32

32:                                               ; preds = %31
  br label %33

33:                                               ; preds = %32, %3
  %34 = load ptr, ptr %8, align 8
  %35 = call ptr @H5O__obj_class_real(ptr noundef %34)
  store ptr %35, ptr %7, align 8
  %36 = icmp eq ptr null, %35
  br i1 %36, label %37, label %52

37:                                               ; preds = %33
  br label %38

38:                                               ; preds = %37
  br label %39

39:                                               ; preds = %38
  br label %40

40:                                               ; preds = %39
  %41 = load i64, ptr @H5E_OHDR_g, align 8
  %42 = load i64, ptr @H5E_CANTGET_g, align 8
  %43 = call i32 (ptr, ptr, i32, i64, i64, ptr, ...) @H5E_printf_stack(ptr noundef @.str.4, ptr noundef @__func__.H5O_get_native_info, i32 noundef 2195, i64 noundef %41, i64 noundef %42, ptr noundef @.str.27)
  br label %44

44:                                               ; preds = %40
  store i8 1, ptr %11, align 1
  %45 = load i8, ptr %11, align 1
  %46 = trunc i8 %45 to i1
  %47 = zext i1 %46 to i8
  store i8 %47, ptr %11, align 1
  br label %48

48:                                               ; preds = %44
  br label %49

49:                                               ; preds = %48
  store i32 -1, ptr %9, align 4
  br label %142

50:                                               ; No predecessors!
  br label %51

51:                                               ; preds = %50
  br label %52

52:                                               ; preds = %51, %33
  %53 = load ptr, ptr %5, align 8
  call void @llvm.memset.p0.i64(ptr align 8 %53, i8 0, i64 96, i1 false)
  %54 = load i32, ptr %6, align 4
  %55 = and i32 %54, 8
  %56 = icmp ne i32 %55, 0
  br i1 %56, label %57, label %79

57:                                               ; preds = %52
  %58 = load ptr, ptr %8, align 8
  %59 = load ptr, ptr %5, align 8
  %60 = getelementptr inbounds %struct.H5O_native_info_t, ptr %59, i32 0, i32 0
  %61 = call i32 @H5O__get_hdr_info_real(ptr noundef %58, ptr noundef %60)
  %62 = icmp slt i32 %61, 0
  br i1 %62, label %63, label %78

63:                                               ; preds = %57
  br label %64

64:                                               ; preds = %63
  br label %65

65:                                               ; preds = %64
  br label %66

66:                                               ; preds = %65
  %67 = load i64, ptr @H5E_OHDR_g, align 8
  %68 = load i64, ptr @H5E_CANTGET_g, align 8
  %69 = call i32 (ptr, ptr, i32, i64, i64, ptr, ...) @H5E_printf_stack(ptr noundef @.str.4, ptr noundef @__func__.H5O_get_native_info, i32 noundef 2203, i64 noundef %67, i64 noundef %68, ptr noundef @.str.65)
  br label %70

70:                                               ; preds = %66
  store i8 1, ptr %11, align 1
  %71 = load i8, ptr %11, align 1
  %72 = trunc i8 %71 to i1
  %73 = zext i1 %72 to i8
  store i8 %73, ptr %11, align 1
  br label %74

74:                                               ; preds = %70
  br label %75

75:                                               ; preds = %74
  store i32 -1, ptr %9, align 4
  br label %142

76:                                               ; No predecessors!
  br label %77

77:                                               ; preds = %76
  br label %78

78:                                               ; preds = %77, %57
  br label %79

79:                                               ; preds = %78, %52
  %80 = load i32, ptr %6, align 4
  %81 = and i32 %80, 16
  %82 = icmp ne i32 %81, 0
  br i1 %82, label %83, label %141

83:                                               ; preds = %79
  %84 = load ptr, ptr %7, align 8
  %85 = getelementptr inbounds %struct.H5O_obj_class_t, ptr %84, i32 0, i32 8
  %86 = load ptr, ptr %85, align 8
  %87 = icmp ne ptr %86, null
  br i1 %87, label %88, label %115

88:                                               ; preds = %83
  %89 = load ptr, ptr %7, align 8
  %90 = getelementptr inbounds %struct.H5O_obj_class_t, ptr %89, i32 0, i32 8
  %91 = load ptr, ptr %90, align 8
  %92 = load ptr, ptr %4, align 8
  %93 = load ptr, ptr %8, align 8
  %94 = load ptr, ptr %5, align 8
  %95 = getelementptr inbounds %struct.H5O_native_info_t, ptr %94, i32 0, i32 1
  %96 = getelementptr inbounds %struct.anon.1, ptr %95, i32 0, i32 0
  %97 = call i32 %91(ptr noundef %92, ptr noundef %93, ptr noundef %96)
  %98 = icmp slt i32 %97, 0
  br i1 %98, label %99, label %114

99:                                               ; preds = %88
  br label %100

100:                                              ; preds = %99
  br label %101

101:                                              ; preds = %100
  br label %102

102:                                              ; preds = %101
  %103 = load i64, ptr @H5E_OHDR_g, align 8
  %104 = load i64, ptr @H5E_CANTGET_g, align 8
  %105 = call i32 (ptr, ptr, i32, i64, i64, ptr, ...) @H5E_printf_stack(ptr noundef @.str.4, ptr noundef @__func__.H5O_get_native_info, i32 noundef 2211, i64 noundef %103, i64 noundef %104, ptr noundef @.str.73)
  br label %106

106:                                              ; preds = %102
  store i8 1, ptr %11, align 1
  %107 = load i8, ptr %11, align 1
  %108 = trunc i8 %107 to i1
  %109 = zext i1 %108 to i8
  store i8 %109, ptr %11, align 1
  br label %110

110:                                              ; preds = %106
  br label %111

111:                                              ; preds = %110
  store i32 -1, ptr %9, align 4
  br label %142

112:                                              ; No predecessors!
  br label %113

113:                                              ; preds = %112
  br label %114

114:                                              ; preds = %113, %88
  br label %115

115:                                              ; preds = %114, %83
  %116 = load ptr, ptr %4, align 8
  %117 = getelementptr inbounds %struct.H5O_loc_t, ptr %116, i32 0, i32 0
  %118 = load ptr, ptr %117, align 8
  %119 = load ptr, ptr %8, align 8
  %120 = load ptr, ptr %5, align 8
  %121 = getelementptr inbounds %struct.H5O_native_info_t, ptr %120, i32 0, i32 1
  %122 = getelementptr inbounds %struct.anon.1, ptr %121, i32 0, i32 1
  %123 = call i32 @H5O__attr_bh_info(ptr noundef %118, ptr noundef %119, ptr noundef %122)
  %124 = icmp slt i32 %123, 0
  br i1 %124, label %125, label %140

125:                                              ; preds = %115
  br label %126

126:                                              ; preds = %125
  br label %127

127:                                              ; preds = %126
  br label %128

128:                                              ; preds = %127
  %129 = load i64, ptr @H5E_OHDR_g, align 8
  %130 = load i64, ptr @H5E_CANTGET_g, align 8
  %131 = call i32 (ptr, ptr, i32, i64, i64, ptr, ...) @H5E_printf_stack(ptr noundef @.str.4, ptr noundef @__func__.H5O_get_native_info, i32 noundef 2215, i64 noundef %129, i64 noundef %130, ptr noundef @.str.74)
  br label %132

132:                                              ; preds = %128
  store i8 1, ptr %11, align 1
  %133 = load i8, ptr %11, align 1
  %134 = trunc i8 %133 to i1
  %135 = zext i1 %134 to i8
  store i8 %135, ptr %11, align 1
  br label %136

136:                                              ; preds = %132
  br label %137

137:                                              ; preds = %136
  store i32 -1, ptr %9, align 4
  br label %142

138:                                              ; No predecessors!
  br label %139

139:                                              ; preds = %138
  br label %140

140:                                              ; preds = %139, %115
  br label %141

141:                                              ; preds = %140, %79
  br label %142

142:                                              ; preds = %141, %137, %111, %75, %49, %30
  %143 = load ptr, ptr %8, align 8
  %144 = icmp ne ptr %143, null
  br i1 %144, label %145, label %163

145:                                              ; preds = %142
  %146 = load ptr, ptr %4, align 8
  %147 = load ptr, ptr %8, align 8
  %148 = call i32 @H5O_unprotect(ptr noundef %146, ptr noundef %147, i32 noundef 0)
  %149 = icmp slt i32 %148, 0
  br i1 %149, label %150, label %163

150:                                              ; preds = %145
  br label %151

151:                                              ; preds = %150
  br label %152

152:                                              ; preds = %151
  br label %153

153:                                              ; preds = %152
  %154 = load i64, ptr @H5E_OHDR_g, align 8
  %155 = load i64, ptr @H5E_CANTUNPROTECT_g, align 8
  %156 = call i32 (ptr, ptr, i32, i64, i64, ptr, ...) @H5E_printf_stack(ptr noundef @.str.4, ptr noundef @__func__.H5O_get_native_info, i32 noundef 2220, i64 noundef %154, i64 noundef %155, ptr noundef @.str.47)
  br label %157

157:                                              ; preds = %153
  store i8 1, ptr %11, align 1
  %158 = load i8, ptr %11, align 1
  %159 = trunc i8 %158 to i1
  %160 = zext i1 %159 to i8
  store i8 %160, ptr %11, align 1
  br label %161

161:                                              ; preds = %157
  store i32 -1, ptr %9, align 4
  br label %162

162:                                              ; preds = %161
  br label %163

163:                                              ; preds = %162, %145, %142
  %164 = load i64, ptr %10, align 8
  call void @H5AC_tag(i64 noundef %164, ptr noundef null)
  %165 = load i32, ptr %9, align 4
  ret i32 %165
}