; Function Attrs: nounwind uwtable
define range(i32 -1, 1) i32 @H5O_get_native_info(ptr noundef %0, ptr noundef %1, i32 noundef %2) local_unnamed_addr #1 {
  %4 = alloca i64, align 8
  store i64 -1, ptr %4, align 8
  %5 = getelementptr inbounds i8, ptr %0, i64 8
  %6 = load i64, ptr %5, align 8
  call void @H5AC_tag(i64 noundef %6, ptr noundef nonnull %4) #11
  %7 = call ptr @H5O_protect(ptr noundef %0, i32 noundef 128, i1 noundef zeroext false)
  %8 = icmp eq ptr %7, null
  br i1 %8, label %.thread, label %.preheader

.thread:                                          ; preds = %3
  %9 = load i64, ptr @H5E_OHDR_g, align 8
  %10 = load i64, ptr @H5E_CANTPROTECT_g, align 8
  %11 = call i32 (ptr, ptr, i32, i64, i64, ptr, ...) @H5E_printf_stack(ptr noundef nonnull @.str.4, ptr noundef nonnull @__func__.H5O_get_native_info, i32 noundef 2191, i64 noundef %9, i64 noundef %10, ptr noundef nonnull @.str.41) #11
  br label %59

.preheader:                                       ; preds = %3, %20
  %.0.i = phi i64 [ %13, %20 ], [ 3, %3 ]
  %.not.i = icmp eq i64 %.0.i, 0
  br i1 %.not.i, label %21, label %12

12:                                               ; preds = %.preheader
  %13 = add nsw i64 %.0.i, -1
  %14 = getelementptr inbounds [3 x ptr], ptr @H5O_obj_class_g, i64 0, i64 %13
  %15 = load ptr, ptr %14, align 8
  %16 = getelementptr inbounds i8, ptr %15, i64 32
  %17 = load ptr, ptr %16, align 8
  %18 = call i32 %17(ptr noundef nonnull %7) #11
  %19 = icmp slt i32 %18, 0
  br i1 %19, label %21, label %20

20:                                               ; preds = %12
  %.not11.i = icmp eq i32 %18, 0
  br i1 %.not11.i, label %.preheader, label %H5O__obj_class_real.exit

21:                                               ; preds = %.preheader, %12
  %.sink.i = phi i32 [ 1689, %12 ], [ 1695, %.preheader ]
  %22 = load i64, ptr @H5E_OHDR_g, align 8
  %23 = load i64, ptr @H5E_CANTINIT_g, align 8
  %24 = call i32 (ptr, ptr, i32, i64, i64, ptr, ...) @H5E_printf_stack(ptr noundef nonnull @.str.4, ptr noundef nonnull @__func__.H5O__obj_class_real, i32 noundef %.sink.i, i64 noundef %22, i64 noundef %23, ptr noundef nonnull @.str.58) #11
  %25 = load i64, ptr @H5E_OHDR_g, align 8
  %26 = load i64, ptr @H5E_CANTGET_g, align 8
  %27 = call i32 (ptr, ptr, i32, i64, i64, ptr, ...) @H5E_printf_stack(ptr noundef nonnull @.str.4, ptr noundef nonnull @__func__.H5O_get_native_info, i32 noundef 2195, i64 noundef %25, i64 noundef %26, ptr noundef nonnull @.str.27) #11
  br label %52

H5O__obj_class_real.exit:                         ; preds = %20
  call void @llvm.memset.p0.i64(ptr noundef nonnull align 8 dereferenceable(96) %1, i8 0, i64 96, i1 false)
  %28 = and i32 %2, 8
  %.not = icmp eq i32 %28, 0
  br i1 %.not, label %30, label %29

29:                                               ; preds = %H5O__obj_class_real.exit
  call fastcc void @H5O__get_hdr_info_real(ptr noundef nonnull %7, ptr noundef nonnull %1)
  br label %30

30:                                               ; preds = %29, %H5O__obj_class_real.exit
  %31 = and i32 %2, 16
  %.not29 = icmp eq i32 %31, 0
  br i1 %.not29, label %52, label %32

32:                                               ; preds = %30
  %33 = getelementptr inbounds i8, ptr %15, i64 64
  %34 = load ptr, ptr %33, align 8
  %.not30 = icmp eq ptr %34, null
  br i1 %.not30, label %43, label %35

35:                                               ; preds = %32
  %36 = getelementptr inbounds i8, ptr %1, i64 64
  %37 = call i32 %34(ptr noundef %0, ptr noundef nonnull %7, ptr noundef nonnull %36) #11
  %38 = icmp slt i32 %37, 0
  br i1 %38, label %39, label %43

39:                                               ; preds = %35
  %40 = load i64, ptr @H5E_OHDR_g, align 8
  %41 = load i64, ptr @H5E_CANTGET_g, align 8
  %42 = call i32 (ptr, ptr, i32, i64, i64, ptr, ...) @H5E_printf_stack(ptr noundef nonnull @.str.4, ptr noundef nonnull @__func__.H5O_get_native_info, i32 noundef 2211, i64 noundef %40, i64 noundef %41, ptr noundef nonnull @.str.73) #11
  br label %52

43:                                               ; preds = %35, %32
  %44 = load ptr, ptr %0, align 8
  %45 = getelementptr inbounds i8, ptr %1, i64 80
  %46 = call i32 @H5O__attr_bh_info(ptr noundef %44, ptr noundef nonnull %7, ptr noundef nonnull %45) #11
  %47 = icmp slt i32 %46, 0
  br i1 %47, label %48, label %52

48:                                               ; preds = %43
  %49 = load i64, ptr @H5E_OHDR_g, align 8
  %50 = load i64, ptr @H5E_CANTGET_g, align 8
  %51 = call i32 (ptr, ptr, i32, i64, i64, ptr, ...) @H5E_printf_stack(ptr noundef nonnull @.str.4, ptr noundef nonnull @__func__.H5O_get_native_info, i32 noundef 2215, i64 noundef %49, i64 noundef %50, ptr noundef nonnull @.str.74) #11
  br label %52

52:                                               ; preds = %21, %39, %48, %43, %30
  %.0 = phi i32 [ -1, %21 ], [ -1, %39 ], [ -1, %48 ], [ 0, %43 ], [ 0, %30 ]
  %53 = call i32 @H5O_unprotect(ptr noundef %0, ptr noundef nonnull %7, i32 noundef 0)
  %54 = icmp slt i32 %53, 0
  br i1 %54, label %55, label %59

55:                                               ; preds = %52
  %56 = load i64, ptr @H5E_OHDR_g, align 8
  %57 = load i64, ptr @H5E_CANTUNPROTECT_g, align 8
  %58 = call i32 (ptr, ptr, i32, i64, i64, ptr, ...) @H5E_printf_stack(ptr noundef nonnull @.str.4, ptr noundef nonnull @__func__.H5O_get_native_info, i32 noundef 2220, i64 noundef %56, i64 noundef %57, ptr noundef nonnull @.str.47) #11
  br label %59

59:                                               ; preds = %.thread, %55, %52
  %.1 = phi i32 [ -1, %55 ], [ %.0, %52 ], [ -1, %.thread ]
  %60 = load i64, ptr %4, align 8
  call void @H5AC_tag(i64 noundef %60, ptr noundef null) #11
  ret i32 %.1
}